; Function Attrs: mustprogress nounwind uwtable
define dso_local void @_ZN4node10StreamPipe16WritableListener12OnStreamReadElRK8uv_buf_t(ptr nocapture noundef nonnull readonly align 8 dereferenceable(24) %this, i64 noundef %nread, ptr noundef nonnull align 8 dereferenceable(16) %buf) unnamed_addr #3 align 2 {
entry:
  %previous_listener_ = getelementptr inbounds i8, ptr %this, i64 16
  %0 = load ptr, ptr %previous_listener_, align 8
  %cmp.not = icmp eq ptr %0, null
  br i1 %cmp.not, label %do.body4, label %do.end5

do.body4:                                         ; preds = %entry
  tail call void @_ZN4node6AssertERKNS_13AssertionInfoE(ptr noundef nonnull align 8 dereferenceable(24) @_ZZN4node10StreamPipe16WritableListener12OnStreamReadElRK8uv_buf_tE4args) #12
  tail call void @abort() #13
  unreachable

do.end5:                                          ; preds = %entry
  %vtable = load ptr, ptr %0, align 8
  %vfn = getelementptr inbounds i8, ptr %vtable, i64 24
  %1 = load ptr, ptr %vfn, align 8
  tail call void %1(ptr noundef nonnull align 8 dereferenceable(24) %0, i64 noundef %nread, ptr noundef nonnull align 8 dereferenceable(16) %buf) #12
  ret void
}